target datalayout = "e-m:e-p270:32:32-p271:32:32-p272:64:64-i64:64-i128:128-f80:128-n8:16:32:64-S128"
target triple = "x86_64-pc-linux-gnu"

%struct.PartitionKeyData = type { i32, i16, ptr, ptr, ptr, ptr, ptr, ptr, ptr, ptr, ptr, ptr, ptr, ptr }
%union.ListCell = type { ptr }
%struct.List = type { i32, i32, i32, ptr, [0 x %union.ListCell] }
%struct.Expr = type { i32 }
%struct.NullTest = type { %struct.Expr, ptr, i32, i8, i32 }
%struct.Node = type { i32 }

@.str.1 = private unnamed_addr constant [13 x i8] c"partbounds.c\00", align 1
@.str.28 = private unnamed_addr constant [42 x i8] c"wrong number of partition key expressions\00", align 1
@__func__.get_range_nulltest = private unnamed_addr constant [19 x i8] c"get_range_nulltest\00", align 1

; Function Attrs: inlinehint nounwind uwtable
define internal ptr @newNode(i64 noundef %0, i32 noundef %1) #5 {
  %3 = alloca i64, align 8
  %4 = alloca i32, align 4
  %5 = alloca ptr, align 8
  store i64 %0, ptr %3, align 8
  store i32 %1, ptr %4, align 4
  call void @llvm.lifetime.start.p0(i64 8, ptr %5) #9
  %6 = load i64, ptr %3, align 8
  %7 = call ptr @palloc0(i64 noundef %6)
  store ptr %7, ptr %5, align 8
  %8 = load i32, ptr %4, align 4
  %9 = load ptr, ptr %5, align 8
  %10 = getelementptr inbounds nuw %struct.Node, ptr %9, i32 0, i32 0
  store i32 %8, ptr %10, align 4
  %11 = load ptr, ptr %5, align 8
  call void @llvm.lifetime.end.p0(i64 8, ptr %5) #9
  ret ptr %11
}

; Function Attrs: inlinehint nounwind uwtable
define internal ptr @lnext(ptr noundef %0, ptr noundef %1) #5 {
  %3 = alloca ptr, align 8
  %4 = alloca ptr, align 8
  %5 = alloca ptr, align 8
  store ptr %0, ptr %4, align 8
  store ptr %1, ptr %5, align 8
  %6 = load ptr, ptr %5, align 8
  %7 = getelementptr inbounds nuw %union.ListCell, ptr %6, i32 1
  store ptr %7, ptr %5, align 8
  %8 = load ptr, ptr %5, align 8
  %9 = load ptr, ptr %4, align 8
  %10 = getelementptr inbounds nuw %struct.List, ptr %9, i32 0, i32 3
  %11 = load ptr, ptr %10, align 8
  %12 = load ptr, ptr %4, align 8
  %13 = getelementptr inbounds nuw %struct.List, ptr %12, i32 0, i32 1
  %14 = load i32, ptr %13, align 4
  %15 = sext i32 %14 to i64
  %16 = getelementptr inbounds %union.ListCell, ptr %11, i64 %15
  %17 = icmp ult ptr %8, %16
  br i1 %17, label %18, label %20

18:                                               ; preds = %2
  %19 = load ptr, ptr %5, align 8
  store ptr %19, ptr %3, align 8
  br label %21

20:                                               ; preds = %2
  store ptr null, ptr %3, align 8
  br label %21

21:                                               ; preds = %20, %18
  %22 = load ptr, ptr %3, align 8
  ret ptr %22
}

; Function Attrs: inlinehint nounwind uwtable
define internal ptr @list_head(ptr noundef %0) #5 {
  %2 = alloca ptr, align 8
  store ptr %0, ptr %2, align 8
  %3 = load ptr, ptr %2, align 8
  %4 = icmp ne ptr %3, null
  br i1 %4, label %5, label %10

5:                                                ; preds = %1
  %6 = load ptr, ptr %2, align 8
  %7 = getelementptr inbounds nuw %struct.List, ptr %6, i32 0, i32 3
  %8 = load ptr, ptr %7, align 8
  %9 = getelementptr inbounds %union.ListCell, ptr %8, i64 0
  br label %11

10:                                               ; preds = %1
  br label %11

11:                                               ; preds = %10, %5
  %12 = phi ptr [ %9, %5 ], [ null, %10 ]
  ret ptr %12
}

; Function Attrs: nounwind uwtable
define internal ptr @get_range_nulltest(ptr noundef %0) #0 {
  %2 = alloca ptr, align 8
  %3 = alloca ptr, align 8
  %4 = alloca ptr, align 8
  %5 = alloca ptr, align 8
  %6 = alloca i32, align 4
  %7 = alloca ptr, align 8
  store ptr %0, ptr %2, align 8
  call void @llvm.lifetime.start.p0(i64 8, ptr %3) #9
  store ptr null, ptr %3, align 8
  call void @llvm.lifetime.start.p0(i64 8, ptr %4) #9
  call void @llvm.lifetime.start.p0(i64 8, ptr %5) #9
  call void @llvm.lifetime.start.p0(i64 4, ptr %6) #9
  %8 = load ptr, ptr %2, align 8
  %9 = getelementptr inbounds nuw %struct.PartitionKeyData, ptr %8, i32 0, i32 3
  %10 = load ptr, ptr %9, align 8
  %11 = call ptr @list_head(ptr noundef %10)
  store ptr %11, ptr %5, align 8
  store i32 0, ptr %6, align 4
  br label %12

12:                                               ; preds = %96, %1
  %13 = load i32, ptr %6, align 4
  %14 = load ptr, ptr %2, align 8
  %15 = getelementptr inbounds nuw %struct.PartitionKeyData, ptr %14, i32 0, i32 1
  %16 = load i16, ptr %15, align 4
  %17 = sext i16 %16 to i32
  %18 = icmp slt i32 %13, %17
  br i1 %18, label %19, label %99

19:                                               ; preds = %12
  call void @llvm.lifetime.start.p0(i64 8, ptr %7) #9
  %20 = load ptr, ptr %2, align 8
  %21 = getelementptr inbounds nuw %struct.PartitionKeyData, ptr %20, i32 0, i32 2
  %22 = load ptr, ptr %21, align 8
  %23 = load i32, ptr %6, align 4
  %24 = sext i32 %23 to i64
  %25 = getelementptr inbounds i16, ptr %22, i64 %24
  %26 = load i16, ptr %25, align 2
  %27 = sext i16 %26 to i32
  %28 = icmp ne i32 %27, 0
  br i1 %28, label %29, label %59

29:                                               ; preds = %19
  %30 = load ptr, ptr %2, align 8
  %31 = getelementptr inbounds nuw %struct.PartitionKeyData, ptr %30, i32 0, i32 2
  %32 = load ptr, ptr %31, align 8
  %33 = load i32, ptr %6, align 4
  %34 = sext i32 %33 to i64
  %35 = getelementptr inbounds i16, ptr %32, i64 %34
  %36 = load i16, ptr %35, align 2
  %37 = load ptr, ptr %2, align 8
  %38 = getelementptr inbounds nuw %struct.PartitionKeyData, ptr %37, i32 0, i32 8
  %39 = load ptr, ptr %38, align 8
  %40 = load i32, ptr %6, align 4
  %41 = sext i32 %40 to i64
  %42 = getelementptr inbounds i32, ptr %39, i64 %41
  %43 = load i32, ptr %42, align 4
  %44 = load ptr, ptr %2, align 8
  %45 = getelementptr inbounds nuw %struct.PartitionKeyData, ptr %44, i32 0, i32 9
  %46 = load ptr, ptr %45, align 8
  %47 = load i32, ptr %6, align 4
  %48 = sext i32 %47 to i64
  %49 = getelementptr inbounds i32, ptr %46, i64 %48
  %50 = load i32, ptr %49, align 4
  %51 = load ptr, ptr %2, align 8
  %52 = getelementptr inbounds nuw %struct.PartitionKeyData, ptr %51, i32 0, i32 13
  %53 = load ptr, ptr %52, align 8
  %54 = load i32, ptr %6, align 4
  %55 = sext i32 %54 to i64
  %56 = getelementptr inbounds i32, ptr %53, i64 %55
  %57 = load i32, ptr %56, align 4
  %58 = call ptr @makeVar(i32 noundef 1, i16 noundef signext %36, i32 noundef %43, i32 noundef %50, i32 noundef %57, i32 noundef 0)
  store ptr %58, ptr %7, align 8
  br label %82

59:                                               ; preds = %19
  %60 = load ptr, ptr %5, align 8
  %61 = icmp eq ptr %60, null
  br i1 %61, label %62, label %73

62:                                               ; preds = %59
  br label %63

63:                                               ; preds = %62
  br i1 true, label %64, label %66

64:                                               ; preds = %63
  %65 = call zeroext i1 @errstart_cold(i32 noundef 21, ptr noundef null) #10
  br i1 %65, label %68, label %70

66:                                               ; preds = %63
  %67 = call zeroext i1 @errstart(i32 noundef 21, ptr noundef null)
  br i1 %67, label %68, label %70

68:                                               ; preds = %66, %64
  %69 = call i32 (ptr, ...) @errmsg_internal(ptr noundef @.str.28)
  call void @errfinish(ptr noundef @.str.1, i32 noundef 4700, ptr noundef @__func__.get_range_nulltest)
  br label %70

70:                                               ; preds = %68, %66, %64
  unreachable

71:                                               ; No predecessors!
  br label %72

72:                                               ; preds = %71
  br label %73

73:                                               ; preds = %72, %59
  %74 = load ptr, ptr %5, align 8
  %75 = load ptr, ptr %74, align 8
  %76 = call ptr @copyObjectImpl(ptr noundef %75)
  store ptr %76, ptr %7, align 8
  %77 = load ptr, ptr %2, align 8
  %78 = getelementptr inbounds nuw %struct.PartitionKeyData, ptr %77, i32 0, i32 3
  %79 = load ptr, ptr %78, align 8
  %80 = load ptr, ptr %5, align 8
  %81 = call ptr @lnext(ptr noundef %79, ptr noundef %80)
  store ptr %81, ptr %5, align 8
  br label %82

82:                                               ; preds = %73, %29
  %83 = call ptr @newNode(i64 noundef 32, i32 noundef 52)
  store ptr %83, ptr %4, align 8
  %84 = load ptr, ptr %7, align 8
  %85 = load ptr, ptr %4, align 8
  %86 = getelementptr inbounds nuw %struct.NullTest, ptr %85, i32 0, i32 1
  store ptr %84, ptr %86, align 8
  %87 = load ptr, ptr %4, align 8
  %88 = getelementptr inbounds nuw %struct.NullTest, ptr %87, i32 0, i32 2
  store i32 1, ptr %88, align 8
  %89 = load ptr, ptr %4, align 8
  %90 = getelementptr inbounds nuw %struct.NullTest, ptr %89, i32 0, i32 3
  store i8 0, ptr %90, align 4
  %91 = load ptr, ptr %4, align 8
  %92 = getelementptr inbounds nuw %struct.NullTest, ptr %91, i32 0, i32 4
  store i32 -1, ptr %92, align 8
  %93 = load ptr, ptr %3, align 8
  %94 = load ptr, ptr %4, align 8
  %95 = call ptr @lappend(ptr noundef %93, ptr noundef %94)
  store ptr %95, ptr %3, align 8
  call void @llvm.lifetime.end.p0(i64 8, ptr %7) #9
  br label %96

96:                                               ; preds = %82
  %97 = load i32, ptr %6, align 4
  %98 = add i32 %97, 1
  store i32 %98, ptr %6, align 4
  br label %12, !llvm.loop !67

99:                                               ; preds = %12
  %100 = load ptr, ptr %3, align 8
  call void @llvm.lifetime.end.p0(i64 4, ptr %6) #9
  call void @llvm.lifetime.end.p0(i64 8, ptr %5) #9
  call void @llvm.lifetime.end.p0(i64 8, ptr %4) #9
  call void @llvm.lifetime.end.p0(i64 8, ptr %3) #9
  ret ptr %100
}