; Function Attrs: nounwind uwtable
define internal fastcc ptr @get_range_nulltest(ptr noundef readonly captures(none) %0) unnamed_addr #0 {
  %2 = getelementptr inbounds nuw i8, ptr %0, i64 16
  %3 = load ptr, ptr %2, align 8
  %.not.i = icmp eq ptr %3, null
  br i1 %.not.i, label %list_head.exit, label %4

4:                                                ; preds = %1
  %5 = getelementptr inbounds nuw i8, ptr %3, i64 16
  %6 = load ptr, ptr %5, align 8
  br label %list_head.exit

list_head.exit:                                   ; preds = %1, %4
  %7 = phi ptr [ %6, %4 ], [ null, %1 ]
  %8 = getelementptr inbounds nuw i8, ptr %0, i64 4
  %9 = load i16, ptr %8, align 4
  %10 = icmp sgt i16 %9, 0
  br i1 %10, label %.lr.ph, label %._crit_edge

.lr.ph:                                           ; preds = %list_head.exit
  %11 = getelementptr inbounds nuw i8, ptr %0, i64 8
  %12 = getelementptr inbounds nuw i8, ptr %0, i64 56
  %13 = getelementptr inbounds nuw i8, ptr %0, i64 64
  %14 = getelementptr inbounds nuw i8, ptr %0, i64 96
  br label %15

15:                                               ; preds = %.lr.ph, %45
  %indvars.iv = phi i64 [ 0, %.lr.ph ], [ %indvars.iv.next, %45 ]
  %.02631 = phi ptr [ %7, %.lr.ph ], [ %.1, %45 ]
  %.02730 = phi ptr [ null, %.lr.ph ], [ %51, %45 ]
  %16 = load ptr, ptr %11, align 8
  %17 = getelementptr inbounds nuw i16, ptr %16, i64 %indvars.iv
  %18 = load i16, ptr %17, align 2
  %.not = icmp eq i16 %18, 0
  br i1 %.not, label %30, label %19

19:                                               ; preds = %15
  %20 = load ptr, ptr %12, align 8
  %21 = getelementptr inbounds nuw i32, ptr %20, i64 %indvars.iv
  %22 = load i32, ptr %21, align 4
  %23 = load ptr, ptr %13, align 8
  %24 = getelementptr inbounds nuw i32, ptr %23, i64 %indvars.iv
  %25 = load i32, ptr %24, align 4
  %26 = load ptr, ptr %14, align 8
  %27 = getelementptr inbounds nuw i32, ptr %26, i64 %indvars.iv
  %28 = load i32, ptr %27, align 4
  %29 = tail call ptr @makeVar(i32 noundef 1, i16 noundef signext %18, i32 noundef %22, i32 noundef %25, i32 noundef %28, i32 noundef 0) #12
  br label %45

30:                                               ; preds = %15
  %31 = icmp eq ptr %.02631, null
  br i1 %31, label %32, label %35

32:                                               ; preds = %30
  %33 = tail call zeroext i1 @errstart_cold(i32 noundef 21, ptr noundef null) #13
  tail call void @llvm.assume(i1 %33)
  %34 = tail call i32 (ptr, ...) @errmsg_internal(ptr noundef nonnull @.str.28) #12
  tail call void @errfinish(ptr noundef nonnull @.str.1, i32 noundef 4700, ptr noundef nonnull @__func__.get_range_nulltest) #12
  unreachable

35:                                               ; preds = %30
  %36 = load ptr, ptr %.02631, align 8
  %37 = tail call ptr @copyObjectImpl(ptr noundef %36) #12
  %38 = load ptr, ptr %2, align 8
  %39 = getelementptr i8, ptr %38, i64 4
  %.val = load i32, ptr %39, align 4
  %40 = getelementptr i8, ptr %38, i64 16
  %.val28 = load ptr, ptr %40, align 8
  %41 = getelementptr inbounds nuw i8, ptr %.02631, i64 8
  %42 = sext i32 %.val to i64
  %43 = getelementptr inbounds %union.ListCell, ptr %.val28, i64 %42
  %44 = icmp ult ptr %41, %43
  %..i = select i1 %44, ptr %41, ptr null
  br label %45

45:                                               ; preds = %35, %19
  %.1 = phi ptr [ %.02631, %19 ], [ %..i, %35 ]
  %.0 = phi ptr [ %29, %19 ], [ %37, %35 ]
  %46 = tail call noundef ptr @palloc0(i64 noundef 32) #12
  store i32 52, ptr %46, align 4
  %47 = getelementptr inbounds nuw i8, ptr %46, i64 8
  store ptr %.0, ptr %47, align 8
  %48 = getelementptr inbounds nuw i8, ptr %46, i64 16
  store i32 1, ptr %48, align 8
  %49 = getelementptr inbounds nuw i8, ptr %46, i64 20
  store i8 0, ptr %49, align 4
  %50 = getelementptr inbounds nuw i8, ptr %46, i64 24
  store i32 -1, ptr %50, align 8
  %51 = tail call ptr @lappend(ptr noundef %.02730, ptr noundef nonnull %46) #12
  %indvars.iv.next = add nuw nsw i64 %indvars.iv, 1
  %52 = load i16, ptr %8, align 4
  %53 = sext i16 %52 to i64
  %54 = icmp slt i64 %indvars.iv.next, %53
  br i1 %54, label %15, label %._crit_edge, !llvm.loop !57

._crit_edge:                                      ; preds = %45, %list_head.exit
  %.027.lcssa = phi ptr [ null, %list_head.exit ], [ %51, %45 ]
  ret ptr %.027.lcssa
}